target datalayout = "e-m:e-p270:32:32-p271:32:32-p272:64:64-i64:64-i128:128-f80:128-n8:16:32:64-S128"
target triple = "x86_64-pc-linux-gnu"

%struct.Node = type { i32 }
%struct.Expr = type { i32 }
%struct.Aggref = type { %struct.Expr, i32, i32, i32, i32, i32, ptr, ptr, ptr, ptr, ptr, ptr, i8, i8, i8, i8, i32, i32, i32, i32, i32 }
%struct.WindowFunc = type { %struct.Expr, i32, i32, i32, i32, ptr, ptr, ptr, i32, i8, i8, i32 }
%struct.FuncExpr = type { %struct.Expr, i32, i32, i8, i8, i32, i32, i32, ptr, i32 }
%struct.OpExpr = type { %struct.Expr, i32, i32, i32, i8, i32, i32, ptr, i32 }
%struct.CoerceViaIO = type { %struct.Expr, ptr, i32, i32, i32, i32 }
%struct.List = type { i32, i32, i32, ptr, [0 x %union.ListCell] }
%union.ListCell = type { ptr }
%struct.ForEachState = type { ptr, i32 }
%struct.ScalarArrayOpExpr = type { %struct.Expr, i32, i32, i32, i32, i8, i32, ptr, i32 }
%struct.RowCompareExpr = type { %struct.Expr, i32, ptr, ptr, ptr, ptr, ptr }

; Function Attrs: nounwind uwtable
define dso_local void @set_sa_opfuncid(ptr noundef %0) #0 {
  %2 = alloca ptr, align 8
  store ptr %0, ptr %2, align 8
  %3 = load ptr, ptr %2, align 8
  %4 = getelementptr inbounds nuw %struct.ScalarArrayOpExpr, ptr %3, i32 0, i32 2
  %5 = load i32, ptr %4, align 8
  %6 = icmp eq i32 %5, 0
  br i1 %6, label %7, label %14

7:                                                ; preds = %1
  %8 = load ptr, ptr %2, align 8
  %9 = getelementptr inbounds nuw %struct.ScalarArrayOpExpr, ptr %8, i32 0, i32 1
  %10 = load i32, ptr %9, align 4
  %11 = call i32 @get_opcode(i32 noundef %10)
  %12 = load ptr, ptr %2, align 8
  %13 = getelementptr inbounds nuw %struct.ScalarArrayOpExpr, ptr %12, i32 0, i32 2
  store i32 %11, ptr %13, align 8
  br label %14

14:                                               ; preds = %7, %1
  ret void
}

; Function Attrs: nounwind uwtable
define dso_local void @set_opfuncid(ptr noundef %0) #0 {
  %2 = alloca ptr, align 8
  store ptr %0, ptr %2, align 8
  %3 = load ptr, ptr %2, align 8
  %4 = getelementptr inbounds nuw %struct.OpExpr, ptr %3, i32 0, i32 2
  %5 = load i32, ptr %4, align 8
  %6 = icmp eq i32 %5, 0
  br i1 %6, label %7, label %14

7:                                                ; preds = %1
  %8 = load ptr, ptr %2, align 8
  %9 = getelementptr inbounds nuw %struct.OpExpr, ptr %8, i32 0, i32 1
  %10 = load i32, ptr %9, align 4
  %11 = call i32 @get_opcode(i32 noundef %10)
  %12 = load ptr, ptr %2, align 8
  %13 = getelementptr inbounds nuw %struct.OpExpr, ptr %12, i32 0, i32 2
  store i32 %11, ptr %13, align 8
  br label %14

14:                                               ; preds = %7, %1
  ret void
}

; Function Attrs: nounwind uwtable
define dso_local zeroext i1 @check_functions_in_node(ptr noundef %0, ptr noundef %1, ptr noundef %2) #0 {
  %4 = alloca i1, align 1
  %5 = alloca ptr, align 8
  %6 = alloca ptr, align 8
  %7 = alloca ptr, align 8
  %8 = alloca ptr, align 8
  %9 = alloca i32, align 4
  %10 = alloca ptr, align 8
  %11 = alloca ptr, align 8
  %12 = alloca ptr, align 8
  %13 = alloca ptr, align 8
  %14 = alloca ptr, align 8
  %15 = alloca i32, align 4
  %16 = alloca i32, align 4
  %17 = alloca i8, align 1
  %18 = alloca ptr, align 8
  %19 = alloca ptr, align 8
  %20 = alloca %struct.ForEachState, align 8
  %21 = alloca i32, align 4
  store ptr %0, ptr %5, align 8
  store ptr %1, ptr %6, align 8
  store ptr %2, ptr %7, align 8
  %22 = load ptr, ptr %5, align 8
  %23 = getelementptr inbounds nuw %struct.Node, ptr %22, i32 0, i32 0
  %24 = load i32, ptr %23, align 4
  switch i32 %24, label %173 [
    i32 9, label %25
    i32 11, label %38
    i32 15, label %51
    i32 17, label %64
    i32 18, label %64
    i32 19, label %64
    i32 20, label %78
    i32 28, label %92
    i32 37, label %116
  ]

25:                                               ; preds = %3
  call void @llvm.lifetime.start.p0(i64 8, ptr %8) #7
  %26 = load ptr, ptr %5, align 8
  store ptr %26, ptr %8, align 8
  %27 = load ptr, ptr %6, align 8
  %28 = load ptr, ptr %8, align 8
  %29 = getelementptr inbounds nuw %struct.Aggref, ptr %28, i32 0, i32 1
  %30 = load i32, ptr %29, align 4
  %31 = load ptr, ptr %7, align 8
  %32 = call zeroext i1 %27(i32 noundef %30, ptr noundef %31)
  br i1 %32, label %33, label %34

33:                                               ; preds = %25
  store i1 true, ptr %4, align 1
  store i32 1, ptr %9, align 4
  br label %35

34:                                               ; preds = %25
  store i32 0, ptr %9, align 4
  br label %35

35:                                               ; preds = %34, %33
  call void @llvm.lifetime.end.p0(i64 8, ptr %8) #7
  %36 = load i32, ptr %9, align 4
  switch i32 %36, label %177 [
    i32 0, label %37
    i32 1, label %175
  ]

37:                                               ; preds = %35
  br label %174

38:                                               ; preds = %3
  call void @llvm.lifetime.start.p0(i64 8, ptr %10) #7
  %39 = load ptr, ptr %5, align 8
  store ptr %39, ptr %10, align 8
  %40 = load ptr, ptr %6, align 8
  %41 = load ptr, ptr %10, align 8
  %42 = getelementptr inbounds nuw %struct.WindowFunc, ptr %41, i32 0, i32 1
  %43 = load i32, ptr %42, align 4
  %44 = load ptr, ptr %7, align 8
  %45 = call zeroext i1 %40(i32 noundef %43, ptr noundef %44)
  br i1 %45, label %46, label %47

46:                                               ; preds = %38
  store i1 true, ptr %4, align 1
  store i32 1, ptr %9, align 4
  br label %48

47:                                               ; preds = %38
  store i32 0, ptr %9, align 4
  br label %48

48:                                               ; preds = %47, %46
  call void @llvm.lifetime.end.p0(i64 8, ptr %10) #7
  %49 = load i32, ptr %9, align 4
  switch i32 %49, label %177 [
    i32 0, label %50
    i32 1, label %175
  ]

50:                                               ; preds = %48
  br label %174

51:                                               ; preds = %3
  call void @llvm.lifetime.start.p0(i64 8, ptr %11) #7
  %52 = load ptr, ptr %5, align 8
  store ptr %52, ptr %11, align 8
  %53 = load ptr, ptr %6, align 8
  %54 = load ptr, ptr %11, align 8
  %55 = getelementptr inbounds nuw %struct.FuncExpr, ptr %54, i32 0, i32 1
  %56 = load i32, ptr %55, align 4
  %57 = load ptr, ptr %7, align 8
  %58 = call zeroext i1 %53(i32 noundef %56, ptr noundef %57)
  br i1 %58, label %59, label %60

59:                                               ; preds = %51
  store i1 true, ptr %4, align 1
  store i32 1, ptr %9, align 4
  br label %61

60:                                               ; preds = %51
  store i32 0, ptr %9, align 4
  br label %61

61:                                               ; preds = %60, %59
  call void @llvm.lifetime.end.p0(i64 8, ptr %11) #7
  %62 = load i32, ptr %9, align 4
  switch i32 %62, label %177 [
    i32 0, label %63
    i32 1, label %175
  ]

63:                                               ; preds = %61
  br label %174

64:                                               ; preds = %3, %3, %3
  call void @llvm.lifetime.start.p0(i64 8, ptr %12) #7
  %65 = load ptr, ptr %5, align 8
  store ptr %65, ptr %12, align 8
  %66 = load ptr, ptr %12, align 8
  call void @set_opfuncid(ptr noundef %66)
  %67 = load ptr, ptr %6, align 8
  %68 = load ptr, ptr %12, align 8
  %69 = getelementptr inbounds nuw %struct.OpExpr, ptr %68, i32 0, i32 2
  %70 = load i32, ptr %69, align 8
  %71 = load ptr, ptr %7, align 8
  %72 = call zeroext i1 %67(i32 noundef %70, ptr noundef %71)
  br i1 %72, label %73, label %74

73:                                               ; preds = %64
  store i1 true, ptr %4, align 1
  store i32 1, ptr %9, align 4
  br label %75

74:                                               ; preds = %64
  store i32 0, ptr %9, align 4
  br label %75

75:                                               ; preds = %74, %73
  call void @llvm.lifetime.end.p0(i64 8, ptr %12) #7
  %76 = load i32, ptr %9, align 4
  switch i32 %76, label %177 [
    i32 0, label %77
    i32 1, label %175
  ]

77:                                               ; preds = %75
  br label %174

78:                                               ; preds = %3
  call void @llvm.lifetime.start.p0(i64 8, ptr %13) #7
  %79 = load ptr, ptr %5, align 8
  store ptr %79, ptr %13, align 8
  %80 = load ptr, ptr %13, align 8
  call void @set_sa_opfuncid(ptr noundef %80)
  %81 = load ptr, ptr %6, align 8
  %82 = load ptr, ptr %13, align 8
  %83 = getelementptr inbounds nuw %struct.ScalarArrayOpExpr, ptr %82, i32 0, i32 2
  %84 = load i32, ptr %83, align 8
  %85 = load ptr, ptr %7, align 8
  %86 = call zeroext i1 %81(i32 noundef %84, ptr noundef %85)
  br i1 %86, label %87, label %88

87:                                               ; preds = %78
  store i1 true, ptr %4, align 1
  store i32 1, ptr %9, align 4
  br label %89

88:                                               ; preds = %78
  store i32 0, ptr %9, align 4
  br label %89

89:                                               ; preds = %88, %87
  call void @llvm.lifetime.end.p0(i64 8, ptr %13) #7
  %90 = load i32, ptr %9, align 4
  switch i32 %90, label %177 [
    i32 0, label %91
    i32 1, label %175
  ]

91:                                               ; preds = %89
  br label %174

92:                                               ; preds = %3
  call void @llvm.lifetime.start.p0(i64 8, ptr %14) #7
  %93 = load ptr, ptr %5, align 8
  store ptr %93, ptr %14, align 8
  call void @llvm.lifetime.start.p0(i64 4, ptr %15) #7
  call void @llvm.lifetime.start.p0(i64 4, ptr %16) #7
  call void @llvm.lifetime.start.p0(i64 1, ptr %17) #7
  %94 = load ptr, ptr %14, align 8
  %95 = getelementptr inbounds nuw %struct.CoerceViaIO, ptr %94, i32 0, i32 2
  %96 = load i32, ptr %95, align 8
  call void @getTypeInputInfo(i32 noundef %96, ptr noundef %15, ptr noundef %16)
  %97 = load ptr, ptr %6, align 8
  %98 = load i32, ptr %15, align 4
  %99 = load ptr, ptr %7, align 8
  %100 = call zeroext i1 %97(i32 noundef %98, ptr noundef %99)
  br i1 %100, label %101, label %102

101:                                              ; preds = %92
  store i1 true, ptr %4, align 1
  store i32 1, ptr %9, align 4
  br label %113

102:                                              ; preds = %92
  %103 = load ptr, ptr %14, align 8
  %104 = getelementptr inbounds nuw %struct.CoerceViaIO, ptr %103, i32 0, i32 1
  %105 = load ptr, ptr %104, align 8
  %106 = call i32 @exprType(ptr noundef %105)
  call void @getTypeOutputInfo(i32 noundef %106, ptr noundef %15, ptr noundef %17)
  %107 = load ptr, ptr %6, align 8
  %108 = load i32, ptr %15, align 4
  %109 = load ptr, ptr %7, align 8
  %110 = call zeroext i1 %107(i32 noundef %108, ptr noundef %109)
  br i1 %110, label %111, label %112

111:                                              ; preds = %102
  store i1 true, ptr %4, align 1
  store i32 1, ptr %9, align 4
  br label %113

112:                                              ; preds = %102
  store i32 0, ptr %9, align 4
  br label %113

113:                                              ; preds = %112, %111, %101
  call void @llvm.lifetime.end.p0(i64 1, ptr %17) #7
  call void @llvm.lifetime.end.p0(i64 4, ptr %16) #7
  call void @llvm.lifetime.end.p0(i64 4, ptr %15) #7
  call void @llvm.lifetime.end.p0(i64 8, ptr %14) #7
  %114 = load i32, ptr %9, align 4
  switch i32 %114, label %177 [
    i32 0, label %115
    i32 1, label %175
  ]

115:                                              ; preds = %113
  br label %174

116:                                              ; preds = %3
  call void @llvm.lifetime.start.p0(i64 8, ptr %18) #7
  %117 = load ptr, ptr %5, align 8
  store ptr %117, ptr %18, align 8
  call void @llvm.lifetime.start.p0(i64 8, ptr %19) #7
  call void @llvm.lifetime.start.p0(i64 16, ptr %20) #7
  %118 = getelementptr inbounds nuw %struct.ForEachState, ptr %20, i32 0, i32 0
  %119 = load ptr, ptr %18, align 8
  %120 = getelementptr inbounds nuw %struct.RowCompareExpr, ptr %119, i32 0, i32 2
  %121 = load ptr, ptr %120, align 8
  store ptr %121, ptr %118, align 8
  %122 = getelementptr inbounds nuw %struct.ForEachState, ptr %20, i32 0, i32 1
  store i32 0, ptr %122, align 8
  %123 = getelementptr i8, ptr %20, i64 12
  call void @llvm.memset.p0.i64(ptr align 4 %123, i8 0, i64 4, i1 false)
  br label %124

124:                                              ; preds = %163, %116
  %125 = getelementptr inbounds nuw %struct.ForEachState, ptr %20, i32 0, i32 0
  %126 = load ptr, ptr %125, align 8
  %127 = icmp ne ptr %126, null
  br i1 %127, label %128, label %145

128:                                              ; preds = %124
  %129 = getelementptr inbounds nuw %struct.ForEachState, ptr %20, i32 0, i32 1
  %130 = load i32, ptr %129, align 8
  %131 = getelementptr inbounds nuw %struct.ForEachState, ptr %20, i32 0, i32 0
  %132 = load ptr, ptr %131, align 8
  %133 = getelementptr inbounds nuw %struct.List, ptr %132, i32 0, i32 1
  %134 = load i32, ptr %133, align 4
  %135 = icmp slt i32 %130, %134
  br i1 %135, label %136, label %145

136:                                              ; preds = %128
  %137 = getelementptr inbounds nuw %struct.ForEachState, ptr %20, i32 0, i32 0
  %138 = load ptr, ptr %137, align 8
  %139 = getelementptr inbounds nuw %struct.List, ptr %138, i32 0, i32 3
  %140 = load ptr, ptr %139, align 8
  %141 = getelementptr inbounds nuw %struct.ForEachState, ptr %20, i32 0, i32 1
  %142 = load i32, ptr %141, align 8
  %143 = sext i32 %142 to i64
  %144 = getelementptr inbounds %union.ListCell, ptr %140, i64 %143
  store ptr %144, ptr %19, align 8
  br label %146

145:                                              ; preds = %128, %124
  store ptr null, ptr %19, align 8
  br label %146

146:                                              ; preds = %145, %136
  %147 = phi i32 [ 1, %136 ], [ 0, %145 ]
  %148 = icmp ne i32 %147, 0
  br i1 %148, label %150, label %149

149:                                              ; preds = %146
  store i32 3, ptr %9, align 4
  br label %167

150:                                              ; preds = %146
  call void @llvm.lifetime.start.p0(i64 4, ptr %21) #7
  %151 = load ptr, ptr %19, align 8
  %152 = load i32, ptr %151, align 8
  %153 = call i32 @get_opcode(i32 noundef %152)
  store i32 %153, ptr %21, align 4
  %154 = load ptr, ptr %6, align 8
  %155 = load i32, ptr %21, align 4
  %156 = load ptr, ptr %7, align 8
  %157 = call zeroext i1 %154(i32 noundef %155, ptr noundef %156)
  br i1 %157, label %158, label %159

158:                                              ; preds = %150
  store i1 true, ptr %4, align 1
  store i32 1, ptr %9, align 4
  br label %160

159:                                              ; preds = %150
  store i32 0, ptr %9, align 4
  br label %160

160:                                              ; preds = %159, %158
  call void @llvm.lifetime.end.p0(i64 4, ptr %21) #7
  %161 = load i32, ptr %9, align 4
  switch i32 %161, label %167 [
    i32 0, label %162
  ]

162:                                              ; preds = %160
  br label %163

163:                                              ; preds = %162
  %164 = getelementptr inbounds nuw %struct.ForEachState, ptr %20, i32 0, i32 1
  %165 = load i32, ptr %164, align 8
  %166 = add i32 %165, 1
  store i32 %166, ptr %164, align 8
  br label %124, !llvm.loop !13

167:                                              ; preds = %160, %149
  call void @llvm.lifetime.end.p0(i64 16, ptr %20) #7
  %168 = load i32, ptr %9, align 4
  switch i32 %168, label %170 [
    i32 3, label %169
  ]

169:                                              ; preds = %167
  store i32 0, ptr %9, align 4
  br label %170

170:                                              ; preds = %169, %167
  call void @llvm.lifetime.end.p0(i64 8, ptr %19) #7
  call void @llvm.lifetime.end.p0(i64 8, ptr %18) #7
  %171 = load i32, ptr %9, align 4
  switch i32 %171, label %177 [
    i32 0, label %172
    i32 1, label %175
  ]

172:                                              ; preds = %170
  br label %174

173:                                              ; preds = %3
  br label %174

174:                                              ; preds = %173, %172, %115, %91, %77, %63, %50, %37
  store i1 false, ptr %4, align 1
  br label %175

175:                                              ; preds = %174, %170, %113, %89, %75, %61, %48, %35
  %176 = load i1, ptr %4, align 1
  ret i1 %176

177:                                              ; preds = %170, %113, %89, %75, %61, %48, %35
  unreachable
}