; Function Attrs: nounwind uwtable
define dso_local noundef zeroext i1 @check_functions_in_node(ptr noundef captures(none) %0, ptr noundef readonly captures(none) %1, ptr noundef %2) local_unnamed_addr #0 {
  %4 = alloca i32, align 4
  %5 = alloca i32, align 4
  %6 = alloca i8, align 1
  %7 = load i32, ptr %0, align 4
  switch i32 %7, label %.thread77 [
    i32 9, label %8
    i32 11, label %12
    i32 15, label %16
    i32 17, label %20
    i32 18, label %20
    i32 19, label %20
    i32 20, label %30
    i32 28, label %40
    i32 37, label %51
  ]

8:                                                ; preds = %3
  %9 = getelementptr inbounds nuw i8, ptr %0, i64 4
  %10 = load i32, ptr %9, align 4
  %11 = tail call zeroext i1 %1(i32 noundef %10, ptr noundef %2) #13
  br i1 %11, label %.loopexit, label %.thread77

12:                                               ; preds = %3
  %13 = getelementptr inbounds nuw i8, ptr %0, i64 4
  %14 = load i32, ptr %13, align 4
  %15 = tail call zeroext i1 %1(i32 noundef %14, ptr noundef %2) #13
  br i1 %15, label %.loopexit, label %.thread77

16:                                               ; preds = %3
  %17 = getelementptr inbounds nuw i8, ptr %0, i64 4
  %18 = load i32, ptr %17, align 4
  %19 = tail call zeroext i1 %1(i32 noundef %18, ptr noundef %2) #13
  br i1 %19, label %.loopexit, label %.thread77

20:                                               ; preds = %3, %3, %3
  %21 = getelementptr inbounds nuw i8, ptr %0, i64 8
  %22 = load i32, ptr %21, align 8
  %23 = icmp eq i32 %22, 0
  br i1 %23, label %24, label %set_opfuncid.exit

24:                                               ; preds = %20
  %25 = getelementptr inbounds nuw i8, ptr %0, i64 4
  %26 = load i32, ptr %25, align 4
  %27 = tail call i32 @get_opcode(i32 noundef %26) #13
  store i32 %27, ptr %21, align 8
  br label %set_opfuncid.exit

set_opfuncid.exit:                                ; preds = %20, %24
  %28 = phi i32 [ %22, %20 ], [ %27, %24 ]
  %29 = tail call zeroext i1 %1(i32 noundef %28, ptr noundef %2) #13
  br i1 %29, label %.loopexit, label %.thread77

30:                                               ; preds = %3
  %31 = getelementptr inbounds nuw i8, ptr %0, i64 8
  %32 = load i32, ptr %31, align 8
  %33 = icmp eq i32 %32, 0
  br i1 %33, label %34, label %set_sa_opfuncid.exit

34:                                               ; preds = %30
  %35 = getelementptr inbounds nuw i8, ptr %0, i64 4
  %36 = load i32, ptr %35, align 4
  %37 = tail call i32 @get_opcode(i32 noundef %36) #13
  store i32 %37, ptr %31, align 8
  br label %set_sa_opfuncid.exit

set_sa_opfuncid.exit:                             ; preds = %30, %34
  %38 = phi i32 [ %32, %30 ], [ %37, %34 ]
  %39 = tail call zeroext i1 %1(i32 noundef %38, ptr noundef %2) #13
  br i1 %39, label %.loopexit, label %.thread77

40:                                               ; preds = %3
  call void @llvm.lifetime.start.p0(i64 4, ptr nonnull %4) #13
  call void @llvm.lifetime.start.p0(i64 4, ptr nonnull %5) #13
  call void @llvm.lifetime.start.p0(i64 1, ptr nonnull %6) #13
  %41 = getelementptr inbounds nuw i8, ptr %0, i64 16
  %42 = load i32, ptr %41, align 8
  call void @getTypeInputInfo(i32 noundef %42, ptr noundef nonnull %4, ptr noundef nonnull %5) #13
  %43 = load i32, ptr %4, align 4
  %44 = call zeroext i1 %1(i32 noundef %43, ptr noundef %2) #13
  br i1 %44, label %.thread, label %45

.thread:                                          ; preds = %40
  call void @llvm.lifetime.end.p0(i64 1, ptr nonnull %6) #13
  call void @llvm.lifetime.end.p0(i64 4, ptr nonnull %5) #13
  call void @llvm.lifetime.end.p0(i64 4, ptr nonnull %4) #13
  br label %.loopexit

45:                                               ; preds = %40
  %46 = getelementptr inbounds nuw i8, ptr %0, i64 8
  %47 = load ptr, ptr %46, align 8
  %48 = call i32 @exprType(ptr noundef %47)
  call void @getTypeOutputInfo(i32 noundef %48, ptr noundef nonnull %4, ptr noundef nonnull %6) #13
  %49 = load i32, ptr %4, align 4
  %50 = call zeroext i1 %1(i32 noundef %49, ptr noundef %2) #13
  call void @llvm.lifetime.end.p0(i64 1, ptr nonnull %6) #13
  call void @llvm.lifetime.end.p0(i64 4, ptr nonnull %5) #13
  call void @llvm.lifetime.end.p0(i64 4, ptr nonnull %4) #13
  br i1 %50, label %.loopexit, label %.thread77

51:                                               ; preds = %3
  %52 = getelementptr inbounds nuw i8, ptr %0, i64 8
  %53 = load ptr, ptr %52, align 8
  %.not = icmp eq ptr %53, null
  br i1 %.not, label %.thread77, label %.lr.ph

.lr.ph:                                           ; preds = %51
  %54 = getelementptr inbounds nuw i8, ptr %53, i64 4
  %55 = getelementptr inbounds nuw i8, ptr %53, i64 16
  %56 = load i32, ptr %54, align 4
  %57 = icmp sgt i32 %56, 0
  br i1 %57, label %.lr.ph83, label %.thread77

58:                                               ; preds = %.lr.ph83
  %indvars.iv.next = add nuw nsw i64 %indvars.iv, 1
  %59 = load i32, ptr %54, align 4
  %60 = sext i32 %59 to i64
  %61 = icmp slt i64 %indvars.iv.next, %60
  br i1 %61, label %.lr.ph83, label %.thread77

.lr.ph83:                                         ; preds = %.lr.ph, %58
  %indvars.iv = phi i64 [ %indvars.iv.next, %58 ], [ 0, %.lr.ph ]
  %62 = load ptr, ptr %55, align 8
  %63 = getelementptr inbounds nuw %union.ListCell, ptr %62, i64 %indvars.iv
  %64 = load i32, ptr %63, align 8
  %65 = tail call i32 @get_opcode(i32 noundef %64) #13
  %66 = tail call zeroext i1 %1(i32 noundef %65, ptr noundef %2) #13
  br i1 %66, label %.loopexit, label %58

.thread77:                                        ; preds = %58, %51, %.lr.ph, %set_sa_opfuncid.exit, %set_opfuncid.exit, %16, %12, %8, %45, %3
  br label %.loopexit

.loopexit:                                        ; preds = %.lr.ph83, %.thread, %set_sa_opfuncid.exit, %set_opfuncid.exit, %16, %12, %8, %45, %.thread77
  %.1 = phi i1 [ false, %.thread77 ], [ true, %45 ], [ true, %set_sa_opfuncid.exit ], [ true, %set_opfuncid.exit ], [ true, %16 ], [ true, %12 ], [ true, %8 ], [ true, %.thread ], [ true, %.lr.ph83 ]
  ret i1 %.1
}